target datalayout = "e-m:e-p270:32:32-p271:32:32-p272:64:64-i64:64-i128:128-f80:128-n8:16:32:64-S128"
target triple = "x86_64-pc-linux-gnu"

%struct.ItemPointerData = type { %struct.BlockIdData, i16 }
%struct.BlockIdData = type { i16, i16 }
%struct.spgConfigOut = type { i32, i32, i32, i8, i8 }
%struct.SpGistTypeDesc = type { i32, i16, i8, i8, i8 }
%struct.SpGistState = type { ptr, %struct.spgConfigOut, %struct.SpGistTypeDesc, %struct.SpGistTypeDesc, %struct.SpGistTypeDesc, %struct.SpGistTypeDesc, ptr, ptr, i32, i8 }
%struct.varattrib_1b = type { i8, [0 x i8] }
%struct.varattrib_1b_e = type { i8, i8, [0 x i8] }
%struct.anon = type { i32, [0 x i8] }
%struct.IndexTupleData = type { %struct.ItemPointerData, i16 }

@.str.1 = private unnamed_addr constant [11 x i8] c"spgutils.c\00", align 1
@.str.5 = private unnamed_addr constant [50 x i8] c"index row requires %zu bytes, maximum size is %zu\00", align 1
@__func__.spgFormNodeTuple = private unnamed_addr constant [17 x i8] c"spgFormNodeTuple\00", align 1

; Function Attrs: inlinehint nounwind uwtable
define internal ptr @DatumGetPointer(i64 noundef %0) #2 {
  %2 = alloca i64, align 8
  store i64 %0, ptr %2, align 8
  %3 = load i64, ptr %2, align 8
  %4 = inttoptr i64 %3 to ptr
  ret ptr %4
}

; Function Attrs: inlinehint nounwind uwtable
define internal void @BlockIdSet(ptr noundef %0, i32 noundef %1) #2 {
  %3 = alloca ptr, align 8
  %4 = alloca i32, align 4
  store ptr %0, ptr %3, align 8
  store i32 %1, ptr %4, align 4
  %5 = load i32, ptr %4, align 4
  %6 = lshr i32 %5, 16
  %7 = trunc i32 %6 to i16
  %8 = load ptr, ptr %3, align 8
  %9 = getelementptr inbounds nuw %struct.BlockIdData, ptr %8, i32 0, i32 0
  store i16 %7, ptr %9, align 2
  %10 = load i32, ptr %4, align 4
  %11 = and i32 %10, 65535
  %12 = trunc i32 %11 to i16
  %13 = load ptr, ptr %3, align 8
  %14 = getelementptr inbounds nuw %struct.BlockIdData, ptr %13, i32 0, i32 1
  store i16 %12, ptr %14, align 2
  ret void
}

; Function Attrs: nounwind uwtable
define internal void @memcpyInnerDatum(ptr noundef %0, ptr noundef %1, i64 noundef %2) #0 {
  %4 = alloca ptr, align 8
  %5 = alloca ptr, align 8
  %6 = alloca i64, align 8
  %7 = alloca i32, align 4
  store ptr %0, ptr %4, align 8
  store ptr %1, ptr %5, align 8
  store i64 %2, ptr %6, align 8
  call void @llvm.lifetime.start.p0(i64 4, ptr %7) #7
  %8 = load ptr, ptr %5, align 8
  %9 = getelementptr inbounds nuw %struct.SpGistTypeDesc, ptr %8, i32 0, i32 2
  %10 = load i8, ptr %9, align 2, !range !4, !noundef !5
  %11 = trunc i8 %10 to i1
  br i1 %11, label %12, label %14

12:                                               ; preds = %3
  %13 = load ptr, ptr %4, align 8
  call void @llvm.memcpy.p0.p0.i64(ptr align 1 %13, ptr align 8 %6, i64 8, i1 false)
  br label %98

14:                                               ; preds = %3
  %15 = load ptr, ptr %5, align 8
  %16 = getelementptr inbounds nuw %struct.SpGistTypeDesc, ptr %15, i32 0, i32 1
  %17 = load i16, ptr %16, align 4
  %18 = sext i16 %17 to i32
  %19 = icmp sgt i32 %18, 0
  br i1 %19, label %20, label %25

20:                                               ; preds = %14
  %21 = load ptr, ptr %5, align 8
  %22 = getelementptr inbounds nuw %struct.SpGistTypeDesc, ptr %21, i32 0, i32 1
  %23 = load i16, ptr %22, align 4
  %24 = sext i16 %23 to i64
  br label %90

25:                                               ; preds = %14
  %26 = load i64, ptr %6, align 8
  %27 = inttoptr i64 %26 to ptr
  %28 = getelementptr inbounds nuw %struct.varattrib_1b, ptr %27, i32 0, i32 0
  %29 = load i8, ptr %28, align 1
  %30 = zext i8 %29 to i32
  %31 = icmp eq i32 %30, 1
  br i1 %31, label %32, label %62

32:                                               ; preds = %25
  %33 = load i64, ptr %6, align 8
  %34 = inttoptr i64 %33 to ptr
  %35 = getelementptr inbounds nuw %struct.varattrib_1b_e, ptr %34, i32 0, i32 1
  %36 = load i8, ptr %35, align 1
  %37 = zext i8 %36 to i32
  %38 = icmp eq i32 %37, 1
  br i1 %38, label %39, label %40

39:                                               ; preds = %32
  br label %59

40:                                               ; preds = %32
  %41 = load i64, ptr %6, align 8
  %42 = inttoptr i64 %41 to ptr
  %43 = getelementptr inbounds nuw %struct.varattrib_1b_e, ptr %42, i32 0, i32 1
  %44 = load i8, ptr %43, align 1
  %45 = zext i8 %44 to i32
  %46 = and i32 %45, -2
  %47 = icmp eq i32 %46, 2
  br i1 %47, label %48, label %49

48:                                               ; preds = %40
  br label %57

49:                                               ; preds = %40
  %50 = load i64, ptr %6, align 8
  %51 = inttoptr i64 %50 to ptr
  %52 = getelementptr inbounds nuw %struct.varattrib_1b_e, ptr %51, i32 0, i32 1
  %53 = load i8, ptr %52, align 1
  %54 = zext i8 %53 to i32
  %55 = icmp eq i32 %54, 18
  %56 = select i1 %55, i64 16, i64 0
  br label %57

57:                                               ; preds = %49, %48
  %58 = phi i64 [ 8, %48 ], [ %56, %49 ]
  br label %59

59:                                               ; preds = %57, %39
  %60 = phi i64 [ 8, %39 ], [ %58, %57 ]
  %61 = add i64 2, %60
  br label %88

62:                                               ; preds = %25
  %63 = load i64, ptr %6, align 8
  %64 = inttoptr i64 %63 to ptr
  %65 = getelementptr inbounds nuw %struct.varattrib_1b, ptr %64, i32 0, i32 0
  %66 = load i8, ptr %65, align 1
  %67 = zext i8 %66 to i32
  %68 = and i32 %67, 1
  %69 = icmp eq i32 %68, 1
  br i1 %69, label %70, label %78

70:                                               ; preds = %62
  %71 = load i64, ptr %6, align 8
  %72 = inttoptr i64 %71 to ptr
  %73 = getelementptr inbounds nuw %struct.varattrib_1b, ptr %72, i32 0, i32 0
  %74 = load i8, ptr %73, align 1
  %75 = zext i8 %74 to i32
  %76 = ashr i32 %75, 1
  %77 = and i32 %76, 127
  br label %85

78:                                               ; preds = %62
  %79 = load i64, ptr %6, align 8
  %80 = inttoptr i64 %79 to ptr
  %81 = getelementptr inbounds nuw %struct.anon, ptr %80, i32 0, i32 0
  %82 = load i32, ptr %81, align 4
  %83 = lshr i32 %82, 2
  %84 = and i32 %83, 1073741823
  br label %85

85:                                               ; preds = %78, %70
  %86 = phi i32 [ %77, %70 ], [ %84, %78 ]
  %87 = zext i32 %86 to i64
  br label %88

88:                                               ; preds = %85, %59
  %89 = phi i64 [ %61, %59 ], [ %87, %85 ]
  br label %90

90:                                               ; preds = %88, %20
  %91 = phi i64 [ %24, %20 ], [ %89, %88 ]
  %92 = trunc i64 %91 to i32
  store i32 %92, ptr %7, align 4
  %93 = load ptr, ptr %4, align 8
  %94 = load i64, ptr %6, align 8
  %95 = call ptr @DatumGetPointer(i64 noundef %94)
  %96 = load i32, ptr %7, align 4
  %97 = zext i32 %96 to i64
  call void @llvm.memcpy.p0.p0.i64(ptr align 1 %93, ptr align 1 %95, i64 %97, i1 false)
  br label %98

98:                                               ; preds = %90, %12
  call void @llvm.lifetime.end.p0(i64 4, ptr %7) #7
  ret void
}

; Function Attrs: inlinehint nounwind uwtable
define internal void @ItemPointerSetInvalid(ptr noundef %0) #2 {
  %2 = alloca ptr, align 8
  store ptr %0, ptr %2, align 8
  %3 = load ptr, ptr %2, align 8
  %4 = getelementptr inbounds nuw %struct.ItemPointerData, ptr %3, i32 0, i32 0
  call void @BlockIdSet(ptr noundef %4, i32 noundef -1)
  %5 = load ptr, ptr %2, align 8
  %6 = getelementptr inbounds nuw %struct.ItemPointerData, ptr %5, i32 0, i32 1
  store i16 0, ptr %6, align 2
  ret void
}

; Function Attrs: nounwind uwtable
define dso_local i32 @SpGistGetInnerTypeSize(ptr noundef %0, i64 noundef %1) #0 {
  %3 = alloca ptr, align 8
  %4 = alloca i64, align 8
  %5 = alloca i32, align 4
  store ptr %0, ptr %3, align 8
  store i64 %1, ptr %4, align 8
  call void @llvm.lifetime.start.p0(i64 4, ptr %5) #7
  %6 = load ptr, ptr %3, align 8
  %7 = getelementptr inbounds nuw %struct.SpGistTypeDesc, ptr %6, i32 0, i32 2
  %8 = load i8, ptr %7, align 2, !range !4, !noundef !5
  %9 = trunc i8 %8 to i1
  br i1 %9, label %10, label %11

10:                                               ; preds = %2
  store i32 8, ptr %5, align 4
  br label %89

11:                                               ; preds = %2
  %12 = load ptr, ptr %3, align 8
  %13 = getelementptr inbounds nuw %struct.SpGistTypeDesc, ptr %12, i32 0, i32 1
  %14 = load i16, ptr %13, align 4
  %15 = sext i16 %14 to i32
  %16 = icmp sgt i32 %15, 0
  br i1 %16, label %17, label %22

17:                                               ; preds = %11
  %18 = load ptr, ptr %3, align 8
  %19 = getelementptr inbounds nuw %struct.SpGistTypeDesc, ptr %18, i32 0, i32 1
  %20 = load i16, ptr %19, align 4
  %21 = sext i16 %20 to i32
  store i32 %21, ptr %5, align 4
  br label %88

22:                                               ; preds = %11
  %23 = load i64, ptr %4, align 8
  %24 = inttoptr i64 %23 to ptr
  %25 = getelementptr inbounds nuw %struct.varattrib_1b, ptr %24, i32 0, i32 0
  %26 = load i8, ptr %25, align 1
  %27 = zext i8 %26 to i32
  %28 = icmp eq i32 %27, 1
  br i1 %28, label %29, label %59

29:                                               ; preds = %22
  %30 = load i64, ptr %4, align 8
  %31 = inttoptr i64 %30 to ptr
  %32 = getelementptr inbounds nuw %struct.varattrib_1b_e, ptr %31, i32 0, i32 1
  %33 = load i8, ptr %32, align 1
  %34 = zext i8 %33 to i32
  %35 = icmp eq i32 %34, 1
  br i1 %35, label %36, label %37

36:                                               ; preds = %29
  br label %56

37:                                               ; preds = %29
  %38 = load i64, ptr %4, align 8
  %39 = inttoptr i64 %38 to ptr
  %40 = getelementptr inbounds nuw %struct.varattrib_1b_e, ptr %39, i32 0, i32 1
  %41 = load i8, ptr %40, align 1
  %42 = zext i8 %41 to i32
  %43 = and i32 %42, -2
  %44 = icmp eq i32 %43, 2
  br i1 %44, label %45, label %46

45:                                               ; preds = %37
  br label %54

46:                                               ; preds = %37
  %47 = load i64, ptr %4, align 8
  %48 = inttoptr i64 %47 to ptr
  %49 = getelementptr inbounds nuw %struct.varattrib_1b_e, ptr %48, i32 0, i32 1
  %50 = load i8, ptr %49, align 1
  %51 = zext i8 %50 to i32
  %52 = icmp eq i32 %51, 18
  %53 = select i1 %52, i64 16, i64 0
  br label %54

54:                                               ; preds = %46, %45
  %55 = phi i64 [ 8, %45 ], [ %53, %46 ]
  br label %56

56:                                               ; preds = %54, %36
  %57 = phi i64 [ 8, %36 ], [ %55, %54 ]
  %58 = add i64 2, %57
  br label %85

59:                                               ; preds = %22
  %60 = load i64, ptr %4, align 8
  %61 = inttoptr i64 %60 to ptr
  %62 = getelementptr inbounds nuw %struct.varattrib_1b, ptr %61, i32 0, i32 0
  %63 = load i8, ptr %62, align 1
  %64 = zext i8 %63 to i32
  %65 = and i32 %64, 1
  %66 = icmp eq i32 %65, 1
  br i1 %66, label %67, label %75

67:                                               ; preds = %59
  %68 = load i64, ptr %4, align 8
  %69 = inttoptr i64 %68 to ptr
  %70 = getelementptr inbounds nuw %struct.varattrib_1b, ptr %69, i32 0, i32 0
  %71 = load i8, ptr %70, align 1
  %72 = zext i8 %71 to i32
  %73 = ashr i32 %72, 1
  %74 = and i32 %73, 127
  br label %82

75:                                               ; preds = %59
  %76 = load i64, ptr %4, align 8
  %77 = inttoptr i64 %76 to ptr
  %78 = getelementptr inbounds nuw %struct.anon, ptr %77, i32 0, i32 0
  %79 = load i32, ptr %78, align 4
  %80 = lshr i32 %79, 2
  %81 = and i32 %80, 1073741823
  br label %82

82:                                               ; preds = %75, %67
  %83 = phi i32 [ %74, %67 ], [ %81, %75 ]
  %84 = zext i32 %83 to i64
  br label %85

85:                                               ; preds = %82, %56
  %86 = phi i64 [ %58, %56 ], [ %84, %82 ]
  %87 = trunc i64 %86 to i32
  store i32 %87, ptr %5, align 4
  br label %88

88:                                               ; preds = %85, %17
  br label %89

89:                                               ; preds = %88, %10
  %90 = load i32, ptr %5, align 4
  %91 = zext i32 %90 to i64
  %92 = add i64 %91, 7
  %93 = and i64 %92, -8
  %94 = trunc i64 %93 to i32
  call void @llvm.lifetime.end.p0(i64 4, ptr %5) #7
  ret i32 %94
}

; Function Attrs: nounwind uwtable
define dso_local ptr @spgFormNodeTuple(ptr noundef %0, i64 noundef %1, i1 noundef zeroext %2) #0 {
  %4 = alloca ptr, align 8
  %5 = alloca i64, align 8
  %6 = alloca i8, align 1
  %7 = alloca ptr, align 8
  %8 = alloca i32, align 4
  %9 = alloca i16, align 2
  store ptr %0, ptr %4, align 8
  store i64 %1, ptr %5, align 8
  %10 = zext i1 %2 to i8
  store i8 %10, ptr %6, align 1
  call void @llvm.lifetime.start.p0(i64 8, ptr %7) #7
  call void @llvm.lifetime.start.p0(i64 4, ptr %8) #7
  call void @llvm.lifetime.start.p0(i64 2, ptr %9) #7
  store i16 0, ptr %9, align 2
  store i32 8, ptr %8, align 4
  %11 = load i8, ptr %6, align 1, !range !4, !noundef !5
  %12 = trunc i8 %11 to i1
  br i1 %12, label %20, label %13

13:                                               ; preds = %3
  %14 = load ptr, ptr %4, align 8
  %15 = getelementptr inbounds nuw %struct.SpGistState, ptr %14, i32 0, i32 5
  %16 = load i64, ptr %5, align 8
  %17 = call i32 @SpGistGetInnerTypeSize(ptr noundef %15, i64 noundef %16)
  %18 = load i32, ptr %8, align 4
  %19 = add i32 %18, %17
  store i32 %19, ptr %8, align 4
  br label %20

20:                                               ; preds = %13, %3
  %21 = load i32, ptr %8, align 4
  %22 = and i32 %21, 8191
  %23 = load i32, ptr %8, align 4
  %24 = icmp ne i32 %22, %23
  br i1 %24, label %25, label %39

25:                                               ; preds = %20
  br label %26

26:                                               ; preds = %25
  br i1 true, label %27, label %29

27:                                               ; preds = %26
  %28 = call zeroext i1 @errstart_cold(i32 noundef 21, ptr noundef null) #8
  br i1 %28, label %31, label %36

29:                                               ; preds = %26
  %30 = call zeroext i1 @errstart(i32 noundef 21, ptr noundef null)
  br i1 %30, label %31, label %36

31:                                               ; preds = %29, %27
  %32 = call i32 @errcode(i32 noundef 261)
  %33 = load i32, ptr %8, align 4
  %34 = zext i32 %33 to i64
  %35 = call i32 (ptr, ...) @errmsg(ptr noundef @.str.5, i64 noundef %34, i64 noundef 8191)
  call void @errfinish(ptr noundef @.str.1, i32 noundef 976, ptr noundef @__func__.spgFormNodeTuple)
  br label %36

36:                                               ; preds = %31, %29, %27
  unreachable

37:                                               ; No predecessors!
  br label %38

38:                                               ; preds = %37
  br label %39

39:                                               ; preds = %38, %20
  %40 = load i32, ptr %8, align 4
  %41 = zext i32 %40 to i64
  %42 = call ptr @palloc0(i64 noundef %41)
  store ptr %42, ptr %7, align 8
  %43 = load i8, ptr %6, align 1, !range !4, !noundef !5
  %44 = trunc i8 %43 to i1
  br i1 %44, label %45, label %50

45:                                               ; preds = %39
  %46 = load i16, ptr %9, align 2
  %47 = zext i16 %46 to i32
  %48 = or i32 %47, 32768
  %49 = trunc i32 %48 to i16
  store i16 %49, ptr %9, align 2
  br label %50

50:                                               ; preds = %45, %39
  %51 = load i32, ptr %8, align 4
  %52 = load i16, ptr %9, align 2
  %53 = zext i16 %52 to i32
  %54 = or i32 %53, %51
  %55 = trunc i32 %54 to i16
  store i16 %55, ptr %9, align 2
  %56 = load i16, ptr %9, align 2
  %57 = load ptr, ptr %7, align 8
  %58 = getelementptr inbounds nuw %struct.IndexTupleData, ptr %57, i32 0, i32 1
  store i16 %56, ptr %58, align 2
  %59 = load ptr, ptr %7, align 8
  %60 = getelementptr inbounds nuw %struct.IndexTupleData, ptr %59, i32 0, i32 0
  call void @ItemPointerSetInvalid(ptr noundef %60)
  %61 = load i8, ptr %6, align 1, !range !4, !noundef !5
  %62 = trunc i8 %61 to i1
  br i1 %62, label %69, label %63

63:                                               ; preds = %50
  %64 = load ptr, ptr %7, align 8
  %65 = getelementptr inbounds nuw i8, ptr %64, i64 8
  %66 = load ptr, ptr %4, align 8
  %67 = getelementptr inbounds nuw %struct.SpGistState, ptr %66, i32 0, i32 5
  %68 = load i64, ptr %5, align 8
  call void @memcpyInnerDatum(ptr noundef %65, ptr noundef %67, i64 noundef %68)
  br label %69

69:                                               ; preds = %63, %50
  %70 = load ptr, ptr %7, align 8
  call void @llvm.lifetime.end.p0(i64 2, ptr %9) #7
  call void @llvm.lifetime.end.p0(i64 4, ptr %8) #7
  call void @llvm.lifetime.end.p0(i64 8, ptr %7) #7
  ret ptr %70
}