; Function Attrs: nounwind uwtable
define dso_local noundef ptr @spgFormNodeTuple(ptr noundef readonly captures(none) %0, i64 noundef %1, i1 noundef zeroext %2) local_unnamed_addr #0 {
  br i1 %2, label %.thread, label %4

4:                                                ; preds = %3
  %5 = getelementptr inbounds nuw i8, ptr %0, i64 66
  %6 = load i8, ptr %5, align 2, !range !7, !noundef !8
  %7 = trunc nuw i8 %6 to i1
  br i1 %7, label %.thread, label %8

8:                                                ; preds = %4
  %9 = getelementptr inbounds nuw i8, ptr %0, i64 64
  %10 = load i16, ptr %9, align 4
  %11 = icmp sgt i16 %10, 0
  br i1 %11, label %12, label %14

12:                                               ; preds = %8
  %13 = zext nneg i16 %10 to i32
  br label %38

14:                                               ; preds = %8
  %15 = inttoptr i64 %1 to ptr
  %16 = load i8, ptr %15, align 1
  %17 = zext i8 %16 to i32
  %18 = icmp eq i8 %16, 1
  br i1 %18, label %19, label %28

19:                                               ; preds = %14
  %20 = getelementptr inbounds nuw i8, ptr %15, i64 1
  %21 = load i8, ptr %20, align 1
  %22 = icmp eq i8 %21, 1
  %23 = and i8 %21, -2
  %24 = icmp eq i8 %23, 2
  %or.cond.i = or i1 %22, %24
  %25 = icmp eq i8 %21, 18
  %26 = select i1 %25, i32 18, i32 2
  %27 = select i1 %or.cond.i, i32 10, i32 %26
  br label %.thread28

28:                                               ; preds = %14
  %29 = and i32 %17, 1
  %.not.i = icmp eq i32 %29, 0
  br i1 %.not.i, label %32, label %30

30:                                               ; preds = %28
  %31 = lshr i32 %17, 1
  br label %.thread28

32:                                               ; preds = %28
  %33 = load i32, ptr %15, align 4
  %34 = lshr i32 %33, 2
  br label %38

.thread28:                                        ; preds = %19, %30
  %.0.i.ph = phi i32 [ %31, %30 ], [ %27, %19 ]
  %35 = add nuw nsw i32 %.0.i.ph, 7
  %36 = and i32 %35, -8
  %37 = add nuw nsw i32 %36, 8
  br label %.thread

38:                                               ; preds = %32, %12
  %.0.i = phi i32 [ %13, %12 ], [ %34, %32 ]
  %39 = add nuw nsw i32 %.0.i, 7
  %40 = and i32 %39, 2147483640
  %41 = add nuw nsw i32 %40, 8
  %.not = icmp samesign ult i32 %.0.i, 8177
  br i1 %.not, label %.thread, label %42

42:                                               ; preds = %38
  %43 = tail call zeroext i1 @errstart_cold(i32 noundef 21, ptr noundef null) #11
  tail call void @llvm.assume(i1 %43)
  %44 = tail call i32 @errcode(i32 noundef 261) #10
  %45 = zext nneg i32 %41 to i64
  %46 = tail call i32 (ptr, ...) @errmsg(ptr noundef nonnull @.str.5, i64 noundef %45, i64 noundef 8191) #10
  tail call void @errfinish(ptr noundef nonnull @.str.1, i32 noundef 976, ptr noundef nonnull @__func__.spgFormNodeTuple) #10
  unreachable

.thread:                                          ; preds = %.thread28, %4, %3, %38
  %spec.select = phi i32 [ 0, %38 ], [ 32768, %3 ], [ 0, %4 ], [ 0, %.thread28 ]
  %.01924 = phi i32 [ %41, %38 ], [ 8, %3 ], [ 16, %4 ], [ %37, %.thread28 ]
  %47 = zext nneg i32 %.01924 to i64
  %48 = tail call ptr @palloc0(i64 noundef %47) #10
  %49 = or disjoint i32 %.01924, %spec.select
  %50 = trunc nuw i32 %49 to i16
  %51 = getelementptr inbounds nuw i8, ptr %48, i64 6
  store i16 %50, ptr %51, align 2
  store i16 -1, ptr %48, align 2
  %52 = getelementptr inbounds nuw i8, ptr %48, i64 2
  store i16 -1, ptr %52, align 2
  %53 = getelementptr inbounds nuw i8, ptr %48, i64 4
  store i16 0, ptr %53, align 2
  br i1 %2, label %memcpyInnerDatum.exit, label %54

54:                                               ; preds = %.thread
  %55 = getelementptr inbounds nuw i8, ptr %48, i64 8
  %56 = getelementptr inbounds nuw i8, ptr %0, i64 66
  %57 = load i8, ptr %56, align 2, !range !7, !noundef !8
  %58 = trunc nuw i8 %57 to i1
  br i1 %58, label %59, label %60

59:                                               ; preds = %54
  store i64 %1, ptr %55, align 1
  br label %memcpyInnerDatum.exit

60:                                               ; preds = %54
  %61 = getelementptr inbounds nuw i8, ptr %0, i64 64
  %62 = load i16, ptr %61, align 4
  %63 = icmp sgt i16 %62, 0
  br i1 %63, label %64, label %66

64:                                               ; preds = %60
  %65 = zext nneg i16 %62 to i32
  %.pre.i = inttoptr i64 %1 to ptr
  br label %87

66:                                               ; preds = %60
  %67 = inttoptr i64 %1 to ptr
  %68 = load i8, ptr %67, align 1
  %69 = zext i8 %68 to i32
  %70 = icmp eq i8 %68, 1
  br i1 %70, label %71, label %80

71:                                               ; preds = %66
  %72 = getelementptr inbounds nuw i8, ptr %67, i64 1
  %73 = load i8, ptr %72, align 1
  %74 = icmp eq i8 %73, 1
  %75 = and i8 %73, -2
  %76 = icmp eq i8 %75, 2
  %or.cond.i21 = or i1 %74, %76
  %77 = icmp eq i8 %73, 18
  %78 = select i1 %77, i32 18, i32 2
  %79 = select i1 %or.cond.i21, i32 10, i32 %78
  br label %87

80:                                               ; preds = %66
  %81 = and i32 %69, 1
  %.not.i20 = icmp eq i32 %81, 0
  br i1 %.not.i20, label %84, label %82

82:                                               ; preds = %80
  %83 = lshr i32 %69, 1
  br label %87

84:                                               ; preds = %80
  %85 = load i32, ptr %67, align 4
  %86 = lshr i32 %85, 2
  br label %87

87:                                               ; preds = %84, %82, %71, %64
  %.pre-phi.i = phi ptr [ %67, %82 ], [ %67, %84 ], [ %67, %71 ], [ %.pre.i, %64 ]
  %88 = phi i32 [ %83, %82 ], [ %86, %84 ], [ %79, %71 ], [ %65, %64 ]
  %89 = zext nneg i32 %88 to i64
  tail call void @llvm.memcpy.p0.p0.i64(ptr nonnull align 1 %55, ptr align 1 %.pre-phi.i, i64 %89, i1 false)
  br label %memcpyInnerDatum.exit

memcpyInnerDatum.exit:                            ; preds = %87, %59, %.thread
  ret ptr %48
}